; Function Attrs: mustprogress uwtable
define hidden void @_ZN2cv3hal12cpu_baseline10absdiff16uEPKtmS3_mPtmii(ptr nocapture noundef readonly %0, i64 noundef %1, ptr nocapture noundef readonly %2, i64 noundef %3, ptr nocapture noundef writeonly %4, i64 noundef %5, i32 noundef %6, i32 noundef %7) local_unnamed_addr #0 personality ptr @__gxx_personality_v0 {
  %9 = alloca %"class.cv::utils::trace::details::Region", align 8
  call void @_ZN2cv5utils5trace7details6RegionC1ERKNS3_21LocationStaticStorageE(ptr noundef nonnull align 8 dereferenceable(12) %9, ptr noundef nonnull align 8 dereferenceable(32) @_ZZN2cv3hal12cpu_baseline10absdiff16uEPKtmS3_mPtmiiE25__cv_trace_location_fn547)
  %10 = lshr i64 %1, 1
  %11 = lshr i64 %3, 1
  %12 = lshr i64 %5, 1
  %.not23.i = icmp ne i32 %7, 0
  %13 = icmp sgt i32 %6, 0
  %or.cond.i = and i1 %13, %.not23.i
  br i1 %or.cond.i, label %.preheader.us.preheader.i, label %_ZN2cv3hal12cpu_baselineL8bin_loopINS1_10op_absdiffEtNS_12hal_baseline5v_regItLi8EEEEEvPKT0_mS9_mPS7_mii.exit

.preheader.us.preheader.i:                        ; preds = %8
  %wide.trip.count.i = zext nneg i32 %6 to i64
  br label %.preheader.us.i

.preheader.us.i:                                  ; preds = %._crit_edge.us.i, %.preheader.us.preheader.i
  %.in.i = phi i32 [ %24, %._crit_edge.us.i ], [ %7, %.preheader.us.preheader.i ]
  %.01926.us.i = phi ptr [ %25, %._crit_edge.us.i ], [ %0, %.preheader.us.preheader.i ]
  %.02025.us.i = phi ptr [ %27, %._crit_edge.us.i ], [ %4, %.preheader.us.preheader.i ]
  %.02124.us.i = phi ptr [ %26, %._crit_edge.us.i ], [ %2, %.preheader.us.preheader.i ]
  br label %14

14:                                               ; preds = %14, %.preheader.us.i
  %indvars.iv.i = phi i64 [ 0, %.preheader.us.i ], [ %indvars.iv.next.i, %14 ]
  %15 = getelementptr inbounds i16, ptr %.01926.us.i, i64 %indvars.iv.i
  %16 = load i16, ptr %15, align 2
  %17 = getelementptr inbounds i16, ptr %.02124.us.i, i64 %indvars.iv.i
  %18 = load i16, ptr %17, align 2
  %19 = icmp ugt i16 %16, %18
  %20 = sub i16 %16, %18
  %21 = sub i16 %18, %16
  %22 = select i1 %19, i16 %20, i16 %21
  %23 = getelementptr inbounds i16, ptr %.02025.us.i, i64 %indvars.iv.i
  store i16 %22, ptr %23, align 2
  %indvars.iv.next.i = add nuw nsw i64 %indvars.iv.i, 1
  %exitcond.not.i = icmp eq i64 %indvars.iv.next.i, %wide.trip.count.i
  br i1 %exitcond.not.i, label %._crit_edge.us.i, label %14, !llvm.loop !69

._crit_edge.us.i:                                 ; preds = %14
  %24 = add nsw i32 %.in.i, -1
  %25 = getelementptr inbounds i16, ptr %.01926.us.i, i64 %10
  %26 = getelementptr inbounds i16, ptr %.02124.us.i, i64 %11
  %27 = getelementptr inbounds i16, ptr %.02025.us.i, i64 %12
  %.not.us.i = icmp eq i32 %24, 0
  br i1 %.not.us.i, label %_ZN2cv3hal12cpu_baselineL8bin_loopINS1_10op_absdiffEtNS_12hal_baseline5v_regItLi8EEEEEvPKT0_mS9_mPS7_mii.exit, label %.preheader.us.i, !llvm.loop !70

_ZN2cv3hal12cpu_baselineL8bin_loopINS1_10op_absdiffEtNS_12hal_baseline5v_regItLi8EEEEEvPKT0_mS9_mPS7_mii.exit: ; preds = %._crit_edge.us.i, %8
  %28 = getelementptr inbounds i8, ptr %9, i64 8
  %29 = load i32, ptr %28, align 8
  %.not.i = icmp eq i32 %29, 0
  br i1 %.not.i, label %_ZN2cv5utils5trace7details6RegionD2Ev.exit, label %30

30:                                               ; preds = %_ZN2cv3hal12cpu_baselineL8bin_loopINS1_10op_absdiffEtNS_12hal_baseline5v_regItLi8EEEEEvPKT0_mS9_mPS7_mii.exit
  invoke void @_ZN2cv5utils5trace7details6Region7destroyEv(ptr noundef nonnull align 8 dereferenceable(12) %9)
          to label %_ZN2cv5utils5trace7details6RegionD2Ev.exit unwind label %31

31:                                               ; preds = %30
  %32 = landingpad { ptr, i32 }
          catch ptr null
  %33 = extractvalue { ptr, i32 } %32, 0
  call void @__clang_call_terminate(ptr %33) #11
  unreachable

_ZN2cv5utils5trace7details6RegionD2Ev.exit:       ; preds = %_ZN2cv3hal12cpu_baselineL8bin_loopINS1_10op_absdiffEtNS_12hal_baseline5v_regItLi8EEEEEvPKT0_mS9_mPS7_mii.exit, %30
  ret void
}